target datalayout = "e-m:e-p270:32:32-p271:32:32-p272:64:64-i64:64-i128:128-f80:128-n8:16:32:64-S128"
target triple = "x86_64-pc-linux-gnu"

%struct.cip_connection_triad = type { i16, i16, i32 }
%struct.nstime_t = type { i64, i32 }
%struct._address = type { i32, i32, ptr, ptr }
%struct.cip_conn_info = type { %struct.cip_connection_triad, i8, i32, %struct.cip_safety_epath_info, i32, ptr, %struct.cip_simple_request_info, i32, i32, i32, %struct.cip_connID_info, %struct.cip_connID_info, i32, i8, i8 }
%struct.cip_safety_epath_info = type { i8, i32, i32, i32, i16, i16, i8, %struct.cip_connection_triad, float }
%struct.cip_simple_request_info = type { i32, i32, i32, i32, i32, i32, i32, i32, i8 }
%struct.cip_connID_info = type { i32, %struct._address, i16, i32, i32, i32, i32, i32, %struct.nstime_t }

@proto_enip = internal global i32 0, align 4
@.str.1019 = private unnamed_addr constant [224 x i8] c"((frame.number == %u) || (frame.number >= %u)) && ((enip.cpf.sai.connid == 0x%08x || enip.cpf.sai.connid == 0x%08x) || ((cip.cm.conn_serial_num == 0x%04x) && (cip.cm.vendor == 0x%04x) && (cip.cm.orig_serial_num == 0x%08x)))\00", align 1
@.str.1021 = private unnamed_addr constant [224 x i8] c"((frame.number == %u) || (frame.number >= %u)) && ((enip.cpf.cai.connid == 0x%08x || enip.cpf.cai.connid == 0x%08x) || ((cip.cm.conn_serial_num == 0x%04x) && (cip.cm.vendor == 0x%04x) && (cip.cm.orig_serial_num == 0x%08x)))\00", align 1

; Function Attrs: null_pointer_is_valid sspstrong uwtable
define internal ptr @enip_exp_conv_filter(ptr noundef %0, ptr noundef %1) #0 {
  %3 = alloca ptr, align 8
  %4 = alloca ptr, align 8
  %5 = alloca ptr, align 8
  %6 = alloca ptr, align 8
  %7 = alloca ptr, align 8
  %8 = alloca i32, align 4
  store ptr %0, ptr %4, align 8
  store ptr %1, ptr %5, align 8
  call void @llvm.lifetime.start.p0(i64 8, ptr %6) #14
  call void @llvm.lifetime.start.p0(i64 8, ptr %7) #14
  %9 = call ptr @wmem_file_scope()
  %10 = load ptr, ptr %4, align 8
  %11 = load i32, ptr @proto_enip, align 4
  %12 = call ptr @p_get_proto_data(ptr noundef %9, ptr noundef %10, i32 noundef %11, i32 noundef 1)
  store ptr %12, ptr %7, align 8
  %13 = load ptr, ptr %7, align 8
  %14 = icmp eq ptr %13, null
  br i1 %14, label %15, label %16

15:                                               ; preds = %2
  store ptr null, ptr %3, align 8
  store i32 1, ptr %8, align 4
  br label %86

16:                                               ; preds = %2
  %17 = load ptr, ptr %7, align 8
  %18 = getelementptr inbounds nuw %struct.cip_conn_info, ptr %17, i32 0, i32 9
  %19 = load i32, ptr %18, align 4
  %20 = icmp ugt i32 %19, 0
  br i1 %20, label %21, label %54

21:                                               ; preds = %16
  %22 = load ptr, ptr %7, align 8
  %23 = getelementptr inbounds nuw %struct.cip_conn_info, ptr %22, i32 0, i32 7
  %24 = load i32, ptr %23, align 4
  %25 = load ptr, ptr %7, align 8
  %26 = getelementptr inbounds nuw %struct.cip_conn_info, ptr %25, i32 0, i32 8
  %27 = load i32, ptr %26, align 8
  %28 = load ptr, ptr %7, align 8
  %29 = getelementptr inbounds nuw %struct.cip_conn_info, ptr %28, i32 0, i32 9
  %30 = load i32, ptr %29, align 4
  %31 = load ptr, ptr %7, align 8
  %32 = getelementptr inbounds nuw %struct.cip_conn_info, ptr %31, i32 0, i32 10
  %33 = getelementptr inbounds nuw %struct.cip_connID_info, ptr %32, i32 0, i32 0
  %34 = load i32, ptr %33, align 8
  %35 = load ptr, ptr %7, align 8
  %36 = getelementptr inbounds nuw %struct.cip_conn_info, ptr %35, i32 0, i32 11
  %37 = getelementptr inbounds nuw %struct.cip_connID_info, ptr %36, i32 0, i32 0
  %38 = load i32, ptr %37, align 8
  %39 = load ptr, ptr %7, align 8
  %40 = getelementptr inbounds nuw %struct.cip_conn_info, ptr %39, i32 0, i32 0
  %41 = getelementptr inbounds nuw %struct.cip_connection_triad, ptr %40, i32 0, i32 0
  %42 = load i16, ptr %41, align 8
  %43 = zext i16 %42 to i32
  %44 = load ptr, ptr %7, align 8
  %45 = getelementptr inbounds nuw %struct.cip_conn_info, ptr %44, i32 0, i32 0
  %46 = getelementptr inbounds nuw %struct.cip_connection_triad, ptr %45, i32 0, i32 1
  %47 = load i16, ptr %46, align 2
  %48 = zext i16 %47 to i32
  %49 = load ptr, ptr %7, align 8
  %50 = getelementptr inbounds nuw %struct.cip_conn_info, ptr %49, i32 0, i32 0
  %51 = getelementptr inbounds nuw %struct.cip_connection_triad, ptr %50, i32 0, i32 2
  %52 = load i32, ptr %51, align 4
  %53 = call noalias ptr (ptr, ptr, ...) @wmem_strdup_printf(ptr noundef null, ptr noundef @.str.1020, i32 noundef %24, i32 noundef %27, i32 noundef %30, i32 noundef %34, i32 noundef %38, i32 noundef %43, i32 noundef %48, i32 noundef %52)
  store ptr %53, ptr %6, align 8
  br label %84

54:                                               ; preds = %16
  %55 = load ptr, ptr %7, align 8
  %56 = getelementptr inbounds nuw %struct.cip_conn_info, ptr %55, i32 0, i32 7
  %57 = load i32, ptr %56, align 4
  %58 = load ptr, ptr %7, align 8
  %59 = getelementptr inbounds nuw %struct.cip_conn_info, ptr %58, i32 0, i32 8
  %60 = load i32, ptr %59, align 8
  %61 = load ptr, ptr %7, align 8
  %62 = getelementptr inbounds nuw %struct.cip_conn_info, ptr %61, i32 0, i32 10
  %63 = getelementptr inbounds nuw %struct.cip_connID_info, ptr %62, i32 0, i32 0
  %64 = load i32, ptr %63, align 8
  %65 = load ptr, ptr %7, align 8
  %66 = getelementptr inbounds nuw %struct.cip_conn_info, ptr %65, i32 0, i32 11
  %67 = getelementptr inbounds nuw %struct.cip_connID_info, ptr %66, i32 0, i32 0
  %68 = load i32, ptr %67, align 8
  %69 = load ptr, ptr %7, align 8
  %70 = getelementptr inbounds nuw %struct.cip_conn_info, ptr %69, i32 0, i32 0
  %71 = getelementptr inbounds nuw %struct.cip_connection_triad, ptr %70, i32 0, i32 0
  %72 = load i16, ptr %71, align 8
  %73 = zext i16 %72 to i32
  %74 = load ptr, ptr %7, align 8
  %75 = getelementptr inbounds nuw %struct.cip_conn_info, ptr %74, i32 0, i32 0
  %76 = getelementptr inbounds nuw %struct.cip_connection_triad, ptr %75, i32 0, i32 1
  %77 = load i16, ptr %76, align 2
  %78 = zext i16 %77 to i32
  %79 = load ptr, ptr %7, align 8
  %80 = getelementptr inbounds nuw %struct.cip_conn_info, ptr %79, i32 0, i32 0
  %81 = getelementptr inbounds nuw %struct.cip_connection_triad, ptr %80, i32 0, i32 2
  %82 = load i32, ptr %81, align 4
  %83 = call noalias ptr (ptr, ptr, ...) @wmem_strdup_printf(ptr noundef null, ptr noundef @.str.1021, i32 noundef %57, i32 noundef %60, i32 noundef %64, i32 noundef %68, i32 noundef %73, i32 noundef %78, i32 noundef %82)
  store ptr %83, ptr %6, align 8
  br label %84

84:                                               ; preds = %54, %21
  %85 = load ptr, ptr %6, align 8
  store ptr %85, ptr %3, align 8
  store i32 1, ptr %8, align 4
  br label %86

86:                                               ; preds = %84, %15
  call void @llvm.lifetime.end.p0(i64 8, ptr %7) #14
  call void @llvm.lifetime.end.p0(i64 8, ptr %6) #14
  %87 = load ptr, ptr %3, align 8
  ret ptr %87
}

; Function Attrs: null_pointer_is_valid sspstrong uwtable
define internal zeroext i1 @enip_exp_conv_valid(ptr noundef %0, ptr noundef %1) #0 {
  %3 = alloca i1, align 1
  %4 = alloca ptr, align 8
  %5 = alloca ptr, align 8
  %6 = alloca ptr, align 8
  %7 = alloca i32, align 4
  store ptr %0, ptr %4, align 8
  store ptr %1, ptr %5, align 8
  call void @llvm.lifetime.start.p0(i64 8, ptr %6) #14
  %8 = call ptr @wmem_file_scope()
  %9 = load ptr, ptr %4, align 8
  %10 = load i32, ptr @proto_enip, align 4
  %11 = call ptr @p_get_proto_data(ptr noundef %8, ptr noundef %9, i32 noundef %10, i32 noundef 1)
  store ptr %11, ptr %6, align 8
  %12 = load ptr, ptr %6, align 8
  %13 = icmp eq ptr %12, null
  br i1 %13, label %14, label %15

14:                                               ; preds = %2
  store i1 false, ptr %3, align 1
  store i32 1, ptr %7, align 4
  br label %31

15:                                               ; preds = %2
  %16 = load ptr, ptr %6, align 8
  %17 = getelementptr inbounds nuw %struct.cip_conn_info, ptr %16, i32 0, i32 1
  %18 = load i8, ptr %17, align 8
  %19 = zext i8 %18 to i32
  %20 = and i32 %19, 15
  %21 = icmp eq i32 %20, 2
  br i1 %21, label %29, label %22

22:                                               ; preds = %15
  %23 = load ptr, ptr %6, align 8
  %24 = getelementptr inbounds nuw %struct.cip_conn_info, ptr %23, i32 0, i32 1
  %25 = load i8, ptr %24, align 8
  %26 = zext i8 %25 to i32
  %27 = and i32 %26, 15
  %28 = icmp eq i32 %27, 3
  br label %29

29:                                               ; preds = %22, %15
  %30 = phi i1 [ true, %15 ], [ %28, %22 ]
  store i1 %30, ptr %3, align 1
  store i32 1, ptr %7, align 4
  br label %31

31:                                               ; preds = %29, %14
  call void @llvm.lifetime.end.p0(i64 8, ptr %6) #14
  %32 = load i1, ptr %3, align 1
  ret i1 %32
}

; Function Attrs: null_pointer_is_valid sspstrong uwtable
define internal ptr @enip_io_conv_filter(ptr noundef %0, ptr noundef %1) #0 {
  %3 = alloca ptr, align 8
  %4 = alloca ptr, align 8
  %5 = alloca ptr, align 8
  %6 = alloca ptr, align 8
  %7 = alloca ptr, align 8
  %8 = alloca i32, align 4
  store ptr %0, ptr %4, align 8
  store ptr %1, ptr %5, align 8
  call void @llvm.lifetime.start.p0(i64 8, ptr %6) #14
  call void @llvm.lifetime.start.p0(i64 8, ptr %7) #14
  %9 = call ptr @wmem_file_scope()
  %10 = load ptr, ptr %4, align 8
  %11 = load i32, ptr @proto_enip, align 4
  %12 = call ptr @p_get_proto_data(ptr noundef %9, ptr noundef %10, i32 noundef %11, i32 noundef 1)
  store ptr %12, ptr %7, align 8
  %13 = load ptr, ptr %7, align 8
  %14 = icmp eq ptr %13, null
  br i1 %14, label %15, label %16

15:                                               ; preds = %2
  store ptr null, ptr %3, align 8
  store i32 1, ptr %8, align 4
  br label %86

16:                                               ; preds = %2
  %17 = load ptr, ptr %7, align 8
  %18 = getelementptr inbounds nuw %struct.cip_conn_info, ptr %17, i32 0, i32 9
  %19 = load i32, ptr %18, align 4
  %20 = icmp ugt i32 %19, 0
  br i1 %20, label %21, label %54

21:                                               ; preds = %16
  %22 = load ptr, ptr %7, align 8
  %23 = getelementptr inbounds nuw %struct.cip_conn_info, ptr %22, i32 0, i32 7
  %24 = load i32, ptr %23, align 4
  %25 = load ptr, ptr %7, align 8
  %26 = getelementptr inbounds nuw %struct.cip_conn_info, ptr %25, i32 0, i32 8
  %27 = load i32, ptr %26, align 8
  %28 = load ptr, ptr %7, align 8
  %29 = getelementptr inbounds nuw %struct.cip_conn_info, ptr %28, i32 0, i32 9
  %30 = load i32, ptr %29, align 4
  %31 = load ptr, ptr %7, align 8
  %32 = getelementptr inbounds nuw %struct.cip_conn_info, ptr %31, i32 0, i32 10
  %33 = getelementptr inbounds nuw %struct.cip_connID_info, ptr %32, i32 0, i32 0
  %34 = load i32, ptr %33, align 8
  %35 = load ptr, ptr %7, align 8
  %36 = getelementptr inbounds nuw %struct.cip_conn_info, ptr %35, i32 0, i32 11
  %37 = getelementptr inbounds nuw %struct.cip_connID_info, ptr %36, i32 0, i32 0
  %38 = load i32, ptr %37, align 8
  %39 = load ptr, ptr %7, align 8
  %40 = getelementptr inbounds nuw %struct.cip_conn_info, ptr %39, i32 0, i32 0
  %41 = getelementptr inbounds nuw %struct.cip_connection_triad, ptr %40, i32 0, i32 0
  %42 = load i16, ptr %41, align 8
  %43 = zext i16 %42 to i32
  %44 = load ptr, ptr %7, align 8
  %45 = getelementptr inbounds nuw %struct.cip_conn_info, ptr %44, i32 0, i32 0
  %46 = getelementptr inbounds nuw %struct.cip_connection_triad, ptr %45, i32 0, i32 1
  %47 = load i16, ptr %46, align 2
  %48 = zext i16 %47 to i32
  %49 = load ptr, ptr %7, align 8
  %50 = getelementptr inbounds nuw %struct.cip_conn_info, ptr %49, i32 0, i32 0
  %51 = getelementptr inbounds nuw %struct.cip_connection_triad, ptr %50, i32 0, i32 2
  %52 = load i32, ptr %51, align 4
  %53 = call noalias ptr (ptr, ptr, ...) @wmem_strdup_printf(ptr noundef null, ptr noundef @.str.1018, i32 noundef %24, i32 noundef %27, i32 noundef %30, i32 noundef %34, i32 noundef %38, i32 noundef %43, i32 noundef %48, i32 noundef %52)
  store ptr %53, ptr %6, align 8
  br label %84

54:                                               ; preds = %16
  %55 = load ptr, ptr %7, align 8
  %56 = getelementptr inbounds nuw %struct.cip_conn_info, ptr %55, i32 0, i32 7
  %57 = load i32, ptr %56, align 4
  %58 = load ptr, ptr %7, align 8
  %59 = getelementptr inbounds nuw %struct.cip_conn_info, ptr %58, i32 0, i32 8
  %60 = load i32, ptr %59, align 8
  %61 = load ptr, ptr %7, align 8
  %62 = getelementptr inbounds nuw %struct.cip_conn_info, ptr %61, i32 0, i32 10
  %63 = getelementptr inbounds nuw %struct.cip_connID_info, ptr %62, i32 0, i32 0
  %64 = load i32, ptr %63, align 8
  %65 = load ptr, ptr %7, align 8
  %66 = getelementptr inbounds nuw %struct.cip_conn_info, ptr %65, i32 0, i32 11
  %67 = getelementptr inbounds nuw %struct.cip_connID_info, ptr %66, i32 0, i32 0
  %68 = load i32, ptr %67, align 8
  %69 = load ptr, ptr %7, align 8
  %70 = getelementptr inbounds nuw %struct.cip_conn_info, ptr %69, i32 0, i32 0
  %71 = getelementptr inbounds nuw %struct.cip_connection_triad, ptr %70, i32 0, i32 0
  %72 = load i16, ptr %71, align 8
  %73 = zext i16 %72 to i32
  %74 = load ptr, ptr %7, align 8
  %75 = getelementptr inbounds nuw %struct.cip_conn_info, ptr %74, i32 0, i32 0
  %76 = getelementptr inbounds nuw %struct.cip_connection_triad, ptr %75, i32 0, i32 1
  %77 = load i16, ptr %76, align 2
  %78 = zext i16 %77 to i32
  %79 = load ptr, ptr %7, align 8
  %80 = getelementptr inbounds nuw %struct.cip_conn_info, ptr %79, i32 0, i32 0
  %81 = getelementptr inbounds nuw %struct.cip_connection_triad, ptr %80, i32 0, i32 2
  %82 = load i32, ptr %81, align 4
  %83 = call noalias ptr (ptr, ptr, ...) @wmem_strdup_printf(ptr noundef null, ptr noundef @.str.1019, i32 noundef %57, i32 noundef %60, i32 noundef %64, i32 noundef %68, i32 noundef %73, i32 noundef %78, i32 noundef %82)
  store ptr %83, ptr %6, align 8
  br label %84

84:                                               ; preds = %54, %21
  %85 = load ptr, ptr %6, align 8
  store ptr %85, ptr %3, align 8
  store i32 1, ptr %8, align 4
  br label %86

86:                                               ; preds = %84, %15
  call void @llvm.lifetime.end.p0(i64 8, ptr %7) #14
  call void @llvm.lifetime.end.p0(i64 8, ptr %6) #14
  %87 = load ptr, ptr %3, align 8
  ret ptr %87
}

; Function Attrs: null_pointer_is_valid sspstrong uwtable
define internal zeroext i1 @enip_io_conv_valid(ptr noundef %0, ptr noundef %1) #0 {
  %3 = alloca i1, align 1
  %4 = alloca ptr, align 8
  %5 = alloca ptr, align 8
  %6 = alloca ptr, align 8
  %7 = alloca i32, align 4
  store ptr %0, ptr %4, align 8
  store ptr %1, ptr %5, align 8
  call void @llvm.lifetime.start.p0(i64 8, ptr %6) #14
  %8 = call ptr @wmem_file_scope()
  %9 = load ptr, ptr %4, align 8
  %10 = load i32, ptr @proto_enip, align 4
  %11 = call ptr @p_get_proto_data(ptr noundef %8, ptr noundef %9, i32 noundef %10, i32 noundef 1)
  store ptr %11, ptr %6, align 8
  %12 = load ptr, ptr %6, align 8
  %13 = icmp eq ptr %12, null
  br i1 %13, label %14, label %15

14:                                               ; preds = %2
  store i1 false, ptr %3, align 1
  store i32 1, ptr %7, align 4
  br label %31

15:                                               ; preds = %2
  %16 = load ptr, ptr %6, align 8
  %17 = getelementptr inbounds nuw %struct.cip_conn_info, ptr %16, i32 0, i32 1
  %18 = load i8, ptr %17, align 8
  %19 = zext i8 %18 to i32
  %20 = and i32 %19, 15
  %21 = icmp eq i32 %20, 0
  br i1 %21, label %29, label %22

22:                                               ; preds = %15
  %23 = load ptr, ptr %6, align 8
  %24 = getelementptr inbounds nuw %struct.cip_conn_info, ptr %23, i32 0, i32 1
  %25 = load i8, ptr %24, align 8
  %26 = zext i8 %25 to i32
  %27 = and i32 %26, 15
  %28 = icmp eq i32 %27, 1
  br label %29

29:                                               ; preds = %22, %15
  %30 = phi i1 [ true, %15 ], [ %28, %22 ]
  store i1 %30, ptr %3, align 1
  store i32 1, ptr %7, align 4
  br label %31

31:                                               ; preds = %29, %14
  call void @llvm.lifetime.end.p0(i64 8, ptr %6) #14
  %32 = load i1, ptr %3, align 1
  ret i1 %32
}

; Function Attrs: null_pointer_is_valid sspstrong uwtable
define internal ptr @cip_connection_conv_filter(ptr noundef %0, ptr noundef %1) #0 {
  %3 = alloca ptr, align 8
  %4 = alloca ptr, align 8
  %5 = alloca ptr, align 8
  store ptr %0, ptr %3, align 8
  store ptr %1, ptr %4, align 8
  call void @llvm.lifetime.start.p0(i64 8, ptr %5) #14
  store ptr null, ptr %5, align 8
  %6 = load ptr, ptr %3, align 8
  %7 = load ptr, ptr %4, align 8
  %8 = call zeroext i1 @enip_io_conv_valid(ptr noundef %6, ptr noundef %7)
  br i1 %8, label %9, label %13

9:                                                ; preds = %2
  %10 = load ptr, ptr %3, align 8
  %11 = load ptr, ptr %4, align 8
  %12 = call ptr @enip_io_conv_filter(ptr noundef %10, ptr noundef %11)
  store ptr %12, ptr %5, align 8
  br label %22

13:                                               ; preds = %2
  %14 = load ptr, ptr %3, align 8
  %15 = load ptr, ptr %4, align 8
  %16 = call zeroext i1 @enip_exp_conv_valid(ptr noundef %14, ptr noundef %15)
  br i1 %16, label %17, label %21

17:                                               ; preds = %13
  %18 = load ptr, ptr %3, align 8
  %19 = load ptr, ptr %4, align 8
  %20 = call ptr @enip_exp_conv_filter(ptr noundef %18, ptr noundef %19)
  store ptr %20, ptr %5, align 8
  br label %21

21:                                               ; preds = %17, %13
  br label %22

22:                                               ; preds = %21, %9
  %23 = load ptr, ptr %5, align 8
  call void @llvm.lifetime.end.p0(i64 8, ptr %5) #14
  ret ptr %23
}