; Function Attrs: null_pointer_is_valid sspstrong uwtable
define internal noalias ptr @cip_connection_conv_filter(ptr noundef %0, ptr readnone captures(none) %1) #0 {
  %3 = tail call ptr @wmem_file_scope()
  %4 = load i32, ptr @proto_enip, align 4
  %5 = tail call ptr @p_get_proto_data(ptr noundef %3, ptr noundef %0, i32 noundef %4, i32 noundef 1)
  %6 = icmp eq ptr %5, null
  br i1 %6, label %enip_io_conv_valid.exit.thread, label %enip_io_conv_valid.exit

enip_io_conv_valid.exit:                          ; preds = %2
  %7 = getelementptr inbounds nuw i8, ptr %5, i64 8
  %8 = load i8, ptr %7, align 8
  %9 = and i8 %8, 14
  %spec.select.i = icmp eq i8 %9, 0
  br i1 %spec.select.i, label %10, label %enip_io_conv_valid.exit.thread

10:                                               ; preds = %enip_io_conv_valid.exit
  %11 = tail call ptr @wmem_file_scope()
  %12 = load i32, ptr @proto_enip, align 4
  %13 = tail call ptr @p_get_proto_data(ptr noundef %11, ptr noundef %0, i32 noundef %12, i32 noundef 1)
  %14 = icmp eq ptr %13, null
  br i1 %14, label %enip_io_conv_filter.exit, label %15

15:                                               ; preds = %10
  %16 = getelementptr inbounds nuw i8, ptr %13, i64 108
  %17 = load i32, ptr %16, align 4
  %.not.i = icmp eq i32 %17, 0
  %18 = getelementptr inbounds nuw i8, ptr %13, i64 100
  %19 = load i32, ptr %18, align 4
  %20 = getelementptr inbounds nuw i8, ptr %13, i64 104
  %21 = load i32, ptr %20, align 8
  %22 = getelementptr inbounds nuw i8, ptr %13, i64 112
  %23 = load i32, ptr %22, align 8
  %24 = getelementptr inbounds nuw i8, ptr %13, i64 184
  %25 = load i32, ptr %24, align 8
  %26 = load i16, ptr %13, align 8
  %27 = zext i16 %26 to i32
  %28 = getelementptr inbounds nuw i8, ptr %13, i64 2
  %29 = load i16, ptr %28, align 2
  %30 = zext i16 %29 to i32
  %31 = getelementptr inbounds nuw i8, ptr %13, i64 4
  %32 = load i32, ptr %31, align 4
  br i1 %.not.i, label %35, label %33

33:                                               ; preds = %15
  %34 = tail call noalias ptr (ptr, ptr, ...) @wmem_strdup_printf(ptr noundef null, ptr noundef nonnull @.str.1018, i32 noundef %19, i32 noundef %21, i32 noundef %17, i32 noundef %23, i32 noundef %25, i32 noundef %27, i32 noundef %30, i32 noundef %32)
  br label %enip_io_conv_filter.exit

35:                                               ; preds = %15
  %36 = tail call noalias ptr (ptr, ptr, ...) @wmem_strdup_printf(ptr noundef null, ptr noundef nonnull @.str.1019, i32 noundef %19, i32 noundef %21, i32 noundef %23, i32 noundef %25, i32 noundef %27, i32 noundef %30, i32 noundef %32)
  br label %enip_io_conv_filter.exit

enip_io_conv_valid.exit.thread:                   ; preds = %2, %enip_io_conv_valid.exit
  %37 = tail call ptr @wmem_file_scope()
  %38 = load i32, ptr @proto_enip, align 4
  %39 = tail call ptr @p_get_proto_data(ptr noundef %37, ptr noundef %0, i32 noundef %38, i32 noundef 1)
  %40 = icmp eq ptr %39, null
  br i1 %40, label %enip_io_conv_filter.exit, label %enip_exp_conv_valid.exit

enip_exp_conv_valid.exit:                         ; preds = %enip_io_conv_valid.exit.thread
  %41 = getelementptr inbounds nuw i8, ptr %39, i64 8
  %42 = load i8, ptr %41, align 8
  %43 = and i8 %42, 14
  %spec.select.i10 = icmp eq i8 %43, 2
  br i1 %spec.select.i10, label %44, label %enip_io_conv_filter.exit

44:                                               ; preds = %enip_exp_conv_valid.exit
  %45 = tail call ptr @wmem_file_scope()
  %46 = load i32, ptr @proto_enip, align 4
  %47 = tail call ptr @p_get_proto_data(ptr noundef %45, ptr noundef %0, i32 noundef %46, i32 noundef 1)
  %48 = icmp eq ptr %47, null
  br i1 %48, label %enip_io_conv_filter.exit, label %49

49:                                               ; preds = %44
  %50 = getelementptr inbounds nuw i8, ptr %47, i64 108
  %51 = load i32, ptr %50, align 4
  %.not.i12 = icmp eq i32 %51, 0
  %52 = getelementptr inbounds nuw i8, ptr %47, i64 100
  %53 = load i32, ptr %52, align 4
  %54 = getelementptr inbounds nuw i8, ptr %47, i64 104
  %55 = load i32, ptr %54, align 8
  %56 = getelementptr inbounds nuw i8, ptr %47, i64 112
  %57 = load i32, ptr %56, align 8
  %58 = getelementptr inbounds nuw i8, ptr %47, i64 184
  %59 = load i32, ptr %58, align 8
  %60 = load i16, ptr %47, align 8
  %61 = zext i16 %60 to i32
  %62 = getelementptr inbounds nuw i8, ptr %47, i64 2
  %63 = load i16, ptr %62, align 2
  %64 = zext i16 %63 to i32
  %65 = getelementptr inbounds nuw i8, ptr %47, i64 4
  %66 = load i32, ptr %65, align 4
  br i1 %.not.i12, label %69, label %67

67:                                               ; preds = %49
  %68 = tail call noalias ptr (ptr, ptr, ...) @wmem_strdup_printf(ptr noundef null, ptr noundef nonnull @.str.1020, i32 noundef %53, i32 noundef %55, i32 noundef %51, i32 noundef %57, i32 noundef %59, i32 noundef %61, i32 noundef %64, i32 noundef %66)
  br label %enip_io_conv_filter.exit

69:                                               ; preds = %49
  %70 = tail call noalias ptr (ptr, ptr, ...) @wmem_strdup_printf(ptr noundef null, ptr noundef nonnull @.str.1021, i32 noundef %53, i32 noundef %55, i32 noundef %57, i32 noundef %59, i32 noundef %61, i32 noundef %64, i32 noundef %66)
  br label %enip_io_conv_filter.exit

enip_io_conv_filter.exit:                         ; preds = %enip_io_conv_valid.exit.thread, %69, %67, %44, %35, %33, %10, %enip_exp_conv_valid.exit
  %.0 = phi ptr [ null, %enip_exp_conv_valid.exit ], [ null, %10 ], [ %34, %33 ], [ %36, %35 ], [ null, %44 ], [ %68, %67 ], [ %70, %69 ], [ null, %enip_io_conv_valid.exit.thread ]
  ret ptr %.0
}